; Function Attrs: null_pointer_is_valid sspstrong uwtable
define hidden void @DfilterFinalize(ptr noundef captures(address) %0) local_unnamed_addr #2 {
  %2 = getelementptr inbounds nuw i8, ptr %0, i64 24
  %3 = load ptr, ptr %0, align 8
  %4 = icmp ugt ptr %3, %2
  br i1 %4, label %.lr.ph, label %._crit_edge

.lr.ph:                                           ; preds = %1, %.lr.ph
  %5 = phi ptr [ %10, %.lr.ph ], [ %3, %1 ]
  %6 = getelementptr i8, ptr %5, i64 -16
  store ptr %6, ptr %0, align 8
  %7 = getelementptr inbounds nuw i8, ptr %5, i64 1
  %8 = load i8, ptr %7, align 1
  %9 = getelementptr inbounds nuw i8, ptr %5, i64 8
  tail call fastcc void @yy_destructor(i8 noundef zeroext %8, ptr noundef nonnull %9)
  %10 = load ptr, ptr %0, align 8
  %11 = icmp ugt ptr %10, %2
  br i1 %11, label %.lr.ph, label %._crit_edge, !llvm.loop !6

._crit_edge:                                      ; preds = %.lr.ph, %1
  ret void
}